; Function Attrs: mustprogress uwtable
define dso_local void @_ZNK4Json5Value3getERKNSt7__cxx1112basic_stringIcSt11char_traitsIcESaIcEEERKS0_(ptr dead_on_unwind noalias writable sret(%"class.Json::Value") align 8 %0, ptr nocapture noundef nonnull readonly align 8 dereferenceable(40) %1, ptr noundef nonnull align 8 dereferenceable(32) %2, ptr nocapture noundef nonnull readonly align 8 dereferenceable(40) %3) local_unnamed_addr #10 align 2 personality ptr @__gxx_personality_v0 {
  %5 = tail call noundef ptr @_ZNKSt7__cxx1112basic_stringIcSt11char_traitsIcESaIcEE4dataEv(ptr noundef nonnull align 8 dereferenceable(32) %2) #35
  %6 = tail call noundef ptr @_ZNKSt7__cxx1112basic_stringIcSt11char_traitsIcESaIcEE4dataEv(ptr noundef nonnull align 8 dereferenceable(32) %2) #35
  %7 = tail call noundef i64 @_ZNKSt7__cxx1112basic_stringIcSt11char_traitsIcESaIcEE6lengthEv(ptr noundef nonnull align 8 dereferenceable(32) %2) #35
  %8 = getelementptr inbounds i8, ptr %6, i64 %7
  tail call void @llvm.experimental.noalias.scope.decl(metadata !21)
  %9 = tail call noundef ptr @_ZNK4Json5Value4findEPKcS2_(ptr noundef nonnull align 8 dereferenceable(40) %1, ptr noundef %5, ptr noundef %8), !noalias !21
  %.not.i = icmp eq ptr %9, null
  %10 = select i1 %.not.i, ptr %3, ptr %9
  %11 = getelementptr inbounds i8, ptr %0, i64 16
  store ptr null, ptr %11, align 8, !alias.scope !21
  invoke void @_ZN4Json5Value10dupPayloadERKS0_(ptr noundef nonnull align 8 dereferenceable(40) %0, ptr noundef nonnull align 8 dereferenceable(40) %10)
          to label %12 unwind label %15

12:                                               ; preds = %4
  %13 = getelementptr inbounds i8, ptr %10, i64 16
  %14 = invoke noundef nonnull align 8 dereferenceable(8) ptr @_ZN4Json5Value8CommentsaSERKS1_(ptr noundef nonnull align 8 dereferenceable(8) %11, ptr noundef nonnull align 8 dereferenceable(8) %13)
          to label %_ZNK4Json5Value3getEPKcS2_RKS0_.exit unwind label %15

15:                                               ; preds = %12, %4
  %16 = landingpad { ptr, i32 }
          cleanup
  tail call void @_ZN4Json5Value8CommentsD2Ev(ptr noundef nonnull align 8 dereferenceable(8) %11) #35
  resume { ptr, i32 } %16

_ZNK4Json5Value3getEPKcS2_RKS0_.exit:             ; preds = %12
  %17 = getelementptr inbounds i8, ptr %10, i64 24
  %18 = load i64, ptr %17, align 8
  %19 = getelementptr inbounds i8, ptr %0, i64 24
  store i64 %18, ptr %19, align 8, !alias.scope !21
  %20 = getelementptr inbounds i8, ptr %10, i64 32
  %21 = load i64, ptr %20, align 8
  %22 = getelementptr inbounds i8, ptr %0, i64 32
  store i64 %21, ptr %22, align 8, !alias.scope !21
  ret void
}